; Function Attrs: mustprogress uwtable
define noundef zeroext i1 @_ZN18DecorateBasePlugin13startDecorateEPK7QActionR12MeshDocumentPK17RichParameterListP6GLArea(ptr noundef nonnull align 8 dereferenceable(192) %0, ptr noundef %1, ptr nocapture noundef nonnull readnone align 8 dereferenceable(192) %2, ptr nocapture noundef readnone %3, ptr nocapture noundef readnone %4) unnamed_addr #9 align 2 {
  %6 = getelementptr inbounds i8, ptr %0, i64 16
  %7 = load ptr, ptr %6, align 8
  %8 = getelementptr inbounds i8, ptr %7, i64 144
  %9 = load ptr, ptr %8, align 8
  %10 = tail call noundef i32 %9(ptr noundef nonnull align 8 dereferenceable(32) %6, ptr noundef %1)
  %cond = icmp eq i32 %10, 2
  br i1 %cond, label %11, label %13

11:                                               ; preds = %5
  %12 = tail call noundef zeroext i1 @_ZN19GLExtensionsManager34initializeGLextensions_notThrowingEv()
  br label %13

13:                                               ; preds = %5, %11
  %.0 = phi i1 [ %12, %11 ], [ true, %5 ]
  ret i1 %.0
}